target datalayout = "e-m:e-p270:32:32-p271:32:32-p272:64:64-i64:64-i128:128-f80:128-n8:16:32:64-S128"
target triple = "x86_64-pc-linux-gnu"

%struct.SpGistScanOpaqueData = type { %struct.SpGistState, ptr, ptr, ptr, i8, i8, i32, ptr, i32, i32, ptr, ptr, ptr, i32, %struct.FmgrInfo, %struct.FmgrInfo, ptr, ptr, ptr, i64, i8, ptr, i32, i32, [408 x %struct.ItemPointerData], [408 x i8], [408 x i8], [408 x ptr], [408 x ptr] }
%struct.SpGistState = type { ptr, %struct.spgConfigOut, %struct.SpGistTypeDesc, %struct.SpGistTypeDesc, %struct.SpGistTypeDesc, %struct.SpGistTypeDesc, ptr, ptr, i32, i8 }
%struct.spgConfigOut = type { i32, i32, i32, i8, i8 }
%struct.SpGistTypeDesc = type { i32, i16, i8, i8, i8 }
%struct.FmgrInfo = type { ptr, i32, i16, i8, i8, i8, ptr, ptr, ptr }
%struct.ItemPointerData = type { %struct.BlockIdData, i16 }
%struct.BlockIdData = type { i16, i16 }
%struct.IndexScanDescData = type { ptr, ptr, ptr, i32, i32, ptr, ptr, i8, i8, i8, i8, i8, ptr, ptr, ptr, ptr, ptr, %struct.ItemPointerData, i8, ptr, i8, ptr, ptr, i8, ptr }
%struct.RelationData = type { %struct.RelFileLocator, ptr, i32, i32, i8, i8, i8, i8, i8, i32, i32, i32, i32, ptr, ptr, i32, %struct.LockInfoData, ptr, ptr, ptr, ptr, ptr, i8, ptr, ptr, ptr, ptr, ptr, ptr, i32, ptr, i8, ptr, ptr, i32, i8, i32, ptr, i8, ptr, ptr, ptr, ptr, ptr, ptr, ptr, i32, ptr, ptr, ptr, ptr, ptr, ptr, ptr, ptr, ptr, ptr, ptr, ptr, ptr, ptr, ptr, ptr, ptr, ptr, ptr, i32, i8, ptr }
%struct.RelFileLocator = type { i32, i32, i32 }
%struct.LockInfoData = type { %struct.LockRelId }
%struct.LockRelId = type { i32, i32 }

@CurrentMemoryContext = external global ptr, align 8
@.str = private unnamed_addr constant [33 x i8] c"SP-GiST search temporary context\00", align 1
@.str.1 = private unnamed_addr constant [32 x i8] c"SP-GiST traversal-value context\00", align 1

; Function Attrs: inlinehint nounwind uwtable
define internal double @get_float8_infinity() #3 {
  ret double 0x7FF0000000000000
}

; Function Attrs: nounwind uwtable
define dso_local ptr @spgbeginscan(ptr noundef %0, i32 noundef %1, i32 noundef %2) #0 {
  %4 = alloca ptr, align 8
  %5 = alloca i32, align 4
  %6 = alloca i32, align 4
  %7 = alloca ptr, align 8
  %8 = alloca ptr, align 8
  %9 = alloca i32, align 4
  %10 = alloca i32, align 4
  %11 = alloca i32, align 4
  store ptr %0, ptr %4, align 8
  store i32 %1, ptr %5, align 4
  store i32 %2, ptr %6, align 4
  call void @llvm.lifetime.start.p0(i64 8, ptr %7) #9
  call void @llvm.lifetime.start.p0(i64 8, ptr %8) #9
  call void @llvm.lifetime.start.p0(i64 4, ptr %9) #9
  %12 = load ptr, ptr %4, align 8
  %13 = load i32, ptr %5, align 4
  %14 = load i32, ptr %6, align 4
  %15 = call ptr @RelationGetIndexScan(ptr noundef %12, i32 noundef %13, i32 noundef %14)
  store ptr %15, ptr %7, align 8
  %16 = call ptr @palloc0(i64 noundef 10120)
  store ptr %16, ptr %8, align 8
  %17 = load i32, ptr %5, align 4
  %18 = icmp sgt i32 %17, 0
  br i1 %18, label %19, label %26

19:                                               ; preds = %3
  %20 = load i32, ptr %5, align 4
  %21 = sext i32 %20 to i64
  %22 = mul i64 72, %21
  %23 = call ptr @palloc(i64 noundef %22)
  %24 = load ptr, ptr %8, align 8
  %25 = getelementptr inbounds nuw %struct.SpGistScanOpaqueData, ptr %24, i32 0, i32 7
  store ptr %23, ptr %25, align 8
  br label %29

26:                                               ; preds = %3
  %27 = load ptr, ptr %8, align 8
  %28 = getelementptr inbounds nuw %struct.SpGistScanOpaqueData, ptr %27, i32 0, i32 7
  store ptr null, ptr %28, align 8
  br label %29

29:                                               ; preds = %26, %19
  %30 = load ptr, ptr %8, align 8
  %31 = getelementptr inbounds nuw %struct.SpGistScanOpaqueData, ptr %30, i32 0, i32 0
  %32 = load ptr, ptr %7, align 8
  %33 = getelementptr inbounds nuw %struct.IndexScanDescData, ptr %32, i32 0, i32 1
  %34 = load ptr, ptr %33, align 8
  call void @initSpGistState(ptr noundef %31, ptr noundef %34)
  br label %35

35:                                               ; preds = %29
  br label %36

36:                                               ; preds = %35
  br label %37

37:                                               ; preds = %36
  store i32 1, ptr %10, align 4
  %38 = load ptr, ptr @CurrentMemoryContext, align 8
  %39 = call ptr @AllocSetContextCreateInternal(ptr noundef %38, ptr noundef @.str, i64 noundef 0, i64 noundef 8192, i64 noundef 8388608)
  %40 = load ptr, ptr %8, align 8
  %41 = getelementptr inbounds nuw %struct.SpGistScanOpaqueData, ptr %40, i32 0, i32 2
  store ptr %39, ptr %41, align 8
  br label %42

42:                                               ; preds = %37
  br label %43

43:                                               ; preds = %42
  br label %44

44:                                               ; preds = %43
  store i32 1, ptr %11, align 4
  %45 = load ptr, ptr @CurrentMemoryContext, align 8
  %46 = call ptr @AllocSetContextCreateInternal(ptr noundef %45, ptr noundef @.str.1, i64 noundef 0, i64 noundef 8192, i64 noundef 8388608)
  %47 = load ptr, ptr %8, align 8
  %48 = getelementptr inbounds nuw %struct.SpGistScanOpaqueData, ptr %47, i32 0, i32 3
  store ptr %46, ptr %48, align 8
  %49 = load ptr, ptr %4, align 8
  %50 = load ptr, ptr %8, align 8
  %51 = getelementptr inbounds nuw %struct.SpGistScanOpaqueData, ptr %50, i32 0, i32 0
  %52 = getelementptr inbounds nuw %struct.SpGistState, ptr %51, i32 0, i32 2
  %53 = call ptr @getSpGistTupleDesc(ptr noundef %49, ptr noundef %52)
  %54 = load ptr, ptr %7, align 8
  %55 = getelementptr inbounds nuw %struct.IndexScanDescData, ptr %54, i32 0, i32 16
  store ptr %53, ptr %55, align 8
  %56 = load ptr, ptr %8, align 8
  %57 = getelementptr inbounds nuw %struct.SpGistScanOpaqueData, ptr %56, i32 0, i32 21
  store ptr %53, ptr %57, align 8
  %58 = load ptr, ptr %7, align 8
  %59 = getelementptr inbounds nuw %struct.IndexScanDescData, ptr %58, i32 0, i32 4
  %60 = load i32, ptr %59, align 4
  %61 = icmp sgt i32 %60, 0
  br i1 %61, label %62, label %143

62:                                               ; preds = %44
  %63 = load ptr, ptr %7, align 8
  %64 = getelementptr inbounds nuw %struct.IndexScanDescData, ptr %63, i32 0, i32 4
  %65 = load i32, ptr %64, align 4
  %66 = sext i32 %65 to i64
  %67 = mul i64 4, %66
  %68 = call ptr @palloc(i64 noundef %67)
  %69 = load ptr, ptr %8, align 8
  %70 = getelementptr inbounds nuw %struct.SpGistScanOpaqueData, ptr %69, i32 0, i32 11
  store ptr %68, ptr %70, align 8
  %71 = load ptr, ptr %7, align 8
  %72 = getelementptr inbounds nuw %struct.IndexScanDescData, ptr %71, i32 0, i32 4
  %73 = load i32, ptr %72, align 4
  %74 = sext i32 %73 to i64
  %75 = mul i64 4, %74
  %76 = call ptr @palloc(i64 noundef %75)
  %77 = load ptr, ptr %8, align 8
  %78 = getelementptr inbounds nuw %struct.SpGistScanOpaqueData, ptr %77, i32 0, i32 12
  store ptr %76, ptr %78, align 8
  %79 = load ptr, ptr %7, align 8
  %80 = getelementptr inbounds nuw %struct.IndexScanDescData, ptr %79, i32 0, i32 4
  %81 = load i32, ptr %80, align 4
  %82 = sext i32 %81 to i64
  %83 = mul i64 8, %82
  %84 = call ptr @palloc(i64 noundef %83)
  %85 = load ptr, ptr %8, align 8
  %86 = getelementptr inbounds nuw %struct.SpGistScanOpaqueData, ptr %85, i32 0, i32 16
  store ptr %84, ptr %86, align 8
  %87 = load ptr, ptr %7, align 8
  %88 = getelementptr inbounds nuw %struct.IndexScanDescData, ptr %87, i32 0, i32 4
  %89 = load i32, ptr %88, align 4
  %90 = sext i32 %89 to i64
  %91 = mul i64 8, %90
  %92 = call ptr @palloc(i64 noundef %91)
  %93 = load ptr, ptr %8, align 8
  %94 = getelementptr inbounds nuw %struct.SpGistScanOpaqueData, ptr %93, i32 0, i32 17
  store ptr %92, ptr %94, align 8
  store i32 0, ptr %9, align 4
  br label %95

95:                                               ; preds = %115, %62
  %96 = load i32, ptr %9, align 4
  %97 = load ptr, ptr %7, align 8
  %98 = getelementptr inbounds nuw %struct.IndexScanDescData, ptr %97, i32 0, i32 4
  %99 = load i32, ptr %98, align 4
  %100 = icmp slt i32 %96, %99
  br i1 %100, label %101, label %118

101:                                              ; preds = %95
  %102 = load ptr, ptr %8, align 8
  %103 = getelementptr inbounds nuw %struct.SpGistScanOpaqueData, ptr %102, i32 0, i32 16
  %104 = load ptr, ptr %103, align 8
  %105 = load i32, ptr %9, align 4
  %106 = sext i32 %105 to i64
  %107 = getelementptr inbounds double, ptr %104, i64 %106
  store double 0.000000e+00, ptr %107, align 8
  %108 = call double @get_float8_infinity()
  %109 = load ptr, ptr %8, align 8
  %110 = getelementptr inbounds nuw %struct.SpGistScanOpaqueData, ptr %109, i32 0, i32 17
  %111 = load ptr, ptr %110, align 8
  %112 = load i32, ptr %9, align 4
  %113 = sext i32 %112 to i64
  %114 = getelementptr inbounds double, ptr %111, i64 %113
  store double %108, ptr %114, align 8
  br label %115

115:                                              ; preds = %101
  %116 = load i32, ptr %9, align 4
  %117 = add i32 %116, 1
  store i32 %117, ptr %9, align 4
  br label %95, !llvm.loop !4

118:                                              ; preds = %95
  %119 = load ptr, ptr %7, align 8
  %120 = getelementptr inbounds nuw %struct.IndexScanDescData, ptr %119, i32 0, i32 4
  %121 = load i32, ptr %120, align 4
  %122 = sext i32 %121 to i64
  %123 = mul i64 8, %122
  %124 = call ptr @palloc0(i64 noundef %123)
  %125 = load ptr, ptr %7, align 8
  %126 = getelementptr inbounds nuw %struct.IndexScanDescData, ptr %125, i32 0, i32 21
  store ptr %124, ptr %126, align 8
  %127 = load ptr, ptr %7, align 8
  %128 = getelementptr inbounds nuw %struct.IndexScanDescData, ptr %127, i32 0, i32 4
  %129 = load i32, ptr %128, align 4
  %130 = sext i32 %129 to i64
  %131 = mul i64 1, %130
  %132 = call ptr @palloc(i64 noundef %131)
  %133 = load ptr, ptr %7, align 8
  %134 = getelementptr inbounds nuw %struct.IndexScanDescData, ptr %133, i32 0, i32 22
  store ptr %132, ptr %134, align 8
  %135 = load ptr, ptr %7, align 8
  %136 = getelementptr inbounds nuw %struct.IndexScanDescData, ptr %135, i32 0, i32 22
  %137 = load ptr, ptr %136, align 8
  %138 = load ptr, ptr %7, align 8
  %139 = getelementptr inbounds nuw %struct.IndexScanDescData, ptr %138, i32 0, i32 4
  %140 = load i32, ptr %139, align 4
  %141 = sext i32 %140 to i64
  %142 = mul i64 1, %141
  call void @llvm.memset.p0.i64(ptr align 1 %137, i8 1, i64 %142, i1 false)
  br label %143

143:                                              ; preds = %118, %44
  %144 = load ptr, ptr %8, align 8
  %145 = getelementptr inbounds nuw %struct.SpGistScanOpaqueData, ptr %144, i32 0, i32 14
  %146 = load ptr, ptr %4, align 8
  %147 = call ptr @index_getprocinfo(ptr noundef %146, i16 noundef signext 1, i16 noundef zeroext 4)
  %148 = load ptr, ptr @CurrentMemoryContext, align 8
  call void @fmgr_info_copy(ptr noundef %145, ptr noundef %147, ptr noundef %148)
  %149 = load ptr, ptr %8, align 8
  %150 = getelementptr inbounds nuw %struct.SpGistScanOpaqueData, ptr %149, i32 0, i32 15
  %151 = load ptr, ptr %4, align 8
  %152 = call ptr @index_getprocinfo(ptr noundef %151, i16 noundef signext 1, i16 noundef zeroext 5)
  %153 = load ptr, ptr @CurrentMemoryContext, align 8
  call void @fmgr_info_copy(ptr noundef %150, ptr noundef %152, ptr noundef %153)
  %154 = load ptr, ptr %4, align 8
  %155 = getelementptr inbounds nuw %struct.RelationData, ptr %154, i32 0, i32 62
  %156 = load ptr, ptr %155, align 8
  %157 = getelementptr inbounds i32, ptr %156, i64 0
  %158 = load i32, ptr %157, align 4
  %159 = load ptr, ptr %8, align 8
  %160 = getelementptr inbounds nuw %struct.SpGistScanOpaqueData, ptr %159, i32 0, i32 13
  store i32 %158, ptr %160, align 8
  %161 = load ptr, ptr %8, align 8
  %162 = load ptr, ptr %7, align 8
  %163 = getelementptr inbounds nuw %struct.IndexScanDescData, ptr %162, i32 0, i32 12
  store ptr %161, ptr %163, align 8
  %164 = load ptr, ptr %7, align 8
  call void @llvm.lifetime.end.p0(i64 4, ptr %9) #9
  call void @llvm.lifetime.end.p0(i64 8, ptr %8) #9
  call void @llvm.lifetime.end.p0(i64 8, ptr %7) #9
  ret ptr %164
}