; Function Attrs: nounwind uwtable
define dso_local ptr @spgbeginscan(ptr noundef %0, i32 noundef %1, i32 noundef %2) local_unnamed_addr #0 {
  %4 = tail call ptr @RelationGetIndexScan(ptr noundef %0, i32 noundef %1, i32 noundef %2) #8
  %5 = tail call ptr @palloc0(i64 noundef 10120) #8
  %6 = icmp sgt i32 %1, 0
  br i1 %6, label %7, label %11

7:                                                ; preds = %3
  %8 = zext nneg i32 %1 to i64
  %9 = mul nuw nsw i64 %8, 72
  %10 = tail call ptr @palloc(i64 noundef %9) #8
  br label %11

11:                                               ; preds = %3, %7
  %.sink = phi ptr [ %10, %7 ], [ null, %3 ]
  %12 = getelementptr inbounds nuw i8, ptr %5, i64 128
  store ptr %.sink, ptr %12, align 8
  %13 = getelementptr inbounds nuw i8, ptr %4, i64 8
  %14 = load ptr, ptr %13, align 8
  tail call void @initSpGistState(ptr noundef nonnull %5, ptr noundef %14) #8
  %15 = load ptr, ptr @CurrentMemoryContext, align 8
  %16 = tail call ptr @AllocSetContextCreateInternal(ptr noundef %15, ptr noundef nonnull @.str, i64 noundef 0, i64 noundef 8192, i64 noundef 8388608) #8
  %17 = getelementptr inbounds nuw i8, ptr %5, i64 104
  store ptr %16, ptr %17, align 8
  %18 = load ptr, ptr @CurrentMemoryContext, align 8
  %19 = tail call ptr @AllocSetContextCreateInternal(ptr noundef %18, ptr noundef nonnull @.str.1, i64 noundef 0, i64 noundef 8192, i64 noundef 8388608) #8
  %20 = getelementptr inbounds nuw i8, ptr %5, i64 112
  store ptr %19, ptr %20, align 8
  %21 = getelementptr inbounds nuw i8, ptr %5, i64 24
  %22 = tail call ptr @getSpGistTupleDesc(ptr noundef %0, ptr noundef nonnull %21) #8
  %23 = getelementptr inbounds nuw i8, ptr %4, i64 88
  store ptr %22, ptr %23, align 8
  %24 = getelementptr inbounds nuw i8, ptr %5, i64 312
  store ptr %22, ptr %24, align 8
  %25 = getelementptr inbounds nuw i8, ptr %4, i64 28
  %26 = load i32, ptr %25, align 4
  %27 = icmp sgt i32 %26, 0
  br i1 %27, label %28, label %66

28:                                               ; preds = %11
  %29 = zext nneg i32 %26 to i64
  %30 = shl nuw nsw i64 %29, 2
  %31 = tail call ptr @palloc(i64 noundef %30) #8
  %32 = getelementptr inbounds nuw i8, ptr %5, i64 152
  store ptr %31, ptr %32, align 8
  %33 = load i32, ptr %25, align 4
  %34 = sext i32 %33 to i64
  %35 = shl nsw i64 %34, 2
  %36 = tail call ptr @palloc(i64 noundef %35) #8
  %37 = getelementptr inbounds nuw i8, ptr %5, i64 160
  store ptr %36, ptr %37, align 8
  %38 = load i32, ptr %25, align 4
  %39 = sext i32 %38 to i64
  %40 = shl nsw i64 %39, 3
  %41 = tail call ptr @palloc(i64 noundef %40) #8
  %42 = getelementptr inbounds nuw i8, ptr %5, i64 272
  store ptr %41, ptr %42, align 8
  %43 = load i32, ptr %25, align 4
  %44 = sext i32 %43 to i64
  %45 = shl nsw i64 %44, 3
  %46 = tail call ptr @palloc(i64 noundef %45) #8
  %47 = getelementptr inbounds nuw i8, ptr %5, i64 280
  store ptr %46, ptr %47, align 8
  %48 = load i32, ptr %25, align 4
  %49 = icmp sgt i32 %48, 0
  br i1 %49, label %.lr.ph, label %.._crit_edge_crit_edge

.._crit_edge_crit_edge:                           ; preds = %28
  %.pre = sext i32 %48 to i64
  br label %._crit_edge

.lr.ph:                                           ; preds = %28, %.lr.ph
  %indvars.iv = phi i64 [ %indvars.iv.next, %.lr.ph ], [ 0, %28 ]
  %50 = load ptr, ptr %42, align 8
  %51 = getelementptr inbounds nuw double, ptr %50, i64 %indvars.iv
  store double 0.000000e+00, ptr %51, align 8
  %52 = load ptr, ptr %47, align 8
  %53 = getelementptr inbounds nuw double, ptr %52, i64 %indvars.iv
  store double 0x7FF0000000000000, ptr %53, align 8
  %indvars.iv.next = add nuw nsw i64 %indvars.iv, 1
  %54 = load i32, ptr %25, align 4
  %55 = sext i32 %54 to i64
  %56 = icmp slt i64 %indvars.iv.next, %55
  br i1 %56, label %.lr.ph, label %._crit_edge, !llvm.loop !4

._crit_edge:                                      ; preds = %.lr.ph, %.._crit_edge_crit_edge
  %.pre-phi = phi i64 [ %.pre, %.._crit_edge_crit_edge ], [ %55, %.lr.ph ]
  %57 = shl nsw i64 %.pre-phi, 3
  %58 = tail call ptr @palloc0(i64 noundef %57) #8
  %59 = getelementptr inbounds nuw i8, ptr %4, i64 120
  store ptr %58, ptr %59, align 8
  %60 = load i32, ptr %25, align 4
  %61 = sext i32 %60 to i64
  %62 = tail call ptr @palloc(i64 noundef %61) #8
  %63 = getelementptr inbounds nuw i8, ptr %4, i64 128
  store ptr %62, ptr %63, align 8
  %64 = load i32, ptr %25, align 4
  %65 = sext i32 %64 to i64
  tail call void @llvm.memset.p0.i64(ptr align 1 %62, i8 1, i64 %65, i1 false)
  br label %66

66:                                               ; preds = %._crit_edge, %11
  %67 = getelementptr inbounds nuw i8, ptr %5, i64 176
  %68 = tail call ptr @index_getprocinfo(ptr noundef %0, i16 noundef signext 1, i16 noundef zeroext 4) #8
  %69 = load ptr, ptr @CurrentMemoryContext, align 8
  tail call void @fmgr_info_copy(ptr noundef nonnull %67, ptr noundef %68, ptr noundef %69) #8
  %70 = getelementptr inbounds nuw i8, ptr %5, i64 224
  %71 = tail call ptr @index_getprocinfo(ptr noundef %0, i16 noundef signext 1, i16 noundef zeroext 5) #8
  %72 = load ptr, ptr @CurrentMemoryContext, align 8
  tail call void @fmgr_info_copy(ptr noundef nonnull %70, ptr noundef %71, ptr noundef %72) #8
  %73 = getelementptr inbounds nuw i8, ptr %0, i64 440
  %74 = load ptr, ptr %73, align 8
  %75 = load i32, ptr %74, align 4
  %76 = getelementptr inbounds nuw i8, ptr %5, i64 168
  store i32 %75, ptr %76, align 8
  %77 = getelementptr inbounds nuw i8, ptr %4, i64 56
  store ptr %5, ptr %77, align 8
  ret ptr %4
}